; Function Attrs: mustprogress nofree norecurse nosync nounwind willreturn memory(argmem: readwrite) uwtable
define range(i32 -173, 2) i32 @wolfSSL_set_group_messages(ptr noundef captures(address_is_null) %0) local_unnamed_addr #4 {
  %2 = icmp eq ptr %0, null
  br i1 %2, label %7, label %3

3:                                                ; preds = %1
  %4 = getelementptr inbounds nuw i8, ptr %0, i64 1024
  %5 = load i64, ptr %4, align 8
  %6 = or i64 %5, 137438953472
  store i64 %6, ptr %4, align 8
  br label %7

7:                                                ; preds = %1, %3
  %.0 = phi i32 [ 1, %3 ], [ -173, %1 ]
  ret i32 %.0
}